target datalayout = "e-m:e-p270:32:32-p271:32:32-p272:64:64-i64:64-i128:128-f80:128-n8:16:32:64-S128"
target triple = "x86_64-pc-linux-gnu"

%struct.ARKodeMRIStepMemRec = type { ptr, ptr, i32, i32, i32, i32, i32, ptr, ptr, i32, i32, i32, ptr, i32, i32, i32, i32, i32, ptr, ptr, ptr, ptr, ptr, ptr, ptr, i32, ptr, i32, ptr, double, double, double, double, i32, double, double, double, double, double, double, i32, i64, i32, i32, i32, ptr, ptr, ptr, ptr, ptr, ptr, ptr, ptr, ptr, double, double, double, i64, i64, i64, i64, i64, i64, i32, i32, i32, double, double, ptr, i32, ptr, ptr }

@__func__.mriStep_SetLinear = private unnamed_addr constant [18 x i8] c"mriStep_SetLinear\00", align 1

; Function Attrs: nounwind uwtable
define i32 @mriStep_SetLinear(ptr noundef %0, i32 noundef %1) #0 {
  %3 = alloca i32, align 4
  %4 = alloca ptr, align 8
  %5 = alloca i32, align 4
  %6 = alloca ptr, align 8
  %7 = alloca i32, align 4
  %8 = alloca i32, align 4
  store ptr %0, ptr %4, align 8, !tbaa !11
  store i32 %1, ptr %5, align 4, !tbaa !9
  call void @llvm.lifetime.start.p0(i64 8, ptr %6) #4
  call void @llvm.lifetime.start.p0(i64 4, ptr %7) #4
  %9 = load ptr, ptr %4, align 8, !tbaa !11
  %10 = call i32 @mriStep_AccessStepMem(ptr noundef %9, ptr noundef @__func__.mriStep_SetLinear, ptr noundef %6)
  store i32 %10, ptr %7, align 4, !tbaa !9
  %11 = load i32, ptr %7, align 4, !tbaa !9
  %12 = icmp ne i32 %11, 0
  br i1 %12, label %13, label %15

13:                                               ; preds = %2
  %14 = load i32, ptr %7, align 4, !tbaa !9
  store i32 %14, ptr %3, align 4
  store i32 1, ptr %8, align 4
  br label %25

15:                                               ; preds = %2
  %16 = load ptr, ptr %6, align 8, !tbaa !13
  %17 = getelementptr inbounds nuw %struct.ARKodeMRIStepMemRec, ptr %16, i32 0, i32 2
  store i32 1, ptr %17, align 8, !tbaa !61
  %18 = load i32, ptr %5, align 4, !tbaa !9
  %19 = icmp eq i32 %18, 1
  %20 = zext i1 %19 to i32
  %21 = load ptr, ptr %6, align 8, !tbaa !13
  %22 = getelementptr inbounds nuw %struct.ARKodeMRIStepMemRec, ptr %21, i32 0, i32 3
  store i32 %20, ptr %22, align 4, !tbaa !62
  %23 = load ptr, ptr %6, align 8, !tbaa !13
  %24 = getelementptr inbounds nuw %struct.ARKodeMRIStepMemRec, ptr %23, i32 0, i32 32
  store double 0x3D19000000000000, ptr %24, align 8, !tbaa !68
  store i32 0, ptr %3, align 4
  store i32 1, ptr %8, align 4
  br label %25

25:                                               ; preds = %15, %13
  call void @llvm.lifetime.end.p0(i64 4, ptr %7) #4
  call void @llvm.lifetime.end.p0(i64 8, ptr %6) #4
  %26 = load i32, ptr %3, align 4
  ret i32 %26
}